target datalayout = "e-m:e-p270:32:32-p271:32:32-p272:64:64-i64:64-i128:128-f80:128-n8:16:32:64-S128"
target triple = "x86_64-unknown-linux-gnu"

%"struct.EA::Thread::ThreadTime" = type { %struct.timespec }
%struct.timespec = type { i64, i64 }
%"class.EA::UnitTest::TestCollection" = type { ptr, %"class.eastl::vector" }
%"class.eastl::vector" = type { %"struct.eastl::VectorBase" }
%"struct.eastl::VectorBase" = type { ptr, ptr, %"class.eastl::compressed_pair.0" }
%"class.eastl::compressed_pair.0" = type { %"class.eastl::compressed_pair_imp.1" }
%"class.eastl::compressed_pair_imp.1" = type { ptr }
%"class.EA::UnitTest::Test" = type { ptr, %"class.eastl::basic_string", ptr, i64, i64, ptr, i8, i64 }
%"class.eastl::basic_string" = type { %"class.eastl::compressed_pair" }
%"class.eastl::compressed_pair" = type { %"class.eastl::compressed_pair_imp" }
%"class.eastl::compressed_pair_imp" = type { %"struct.eastl::basic_string<char>::Layout" }
%"struct.eastl::basic_string<char>::Layout" = type { %union.anon }
%union.anon = type { %"struct.eastl::basic_string<char>::HeapLayout" }
%"struct.eastl::basic_string<char>::HeapLayout" = type { ptr, i64, i64 }
%"class.EA::UnitTest::TestSuite" = type { %"class.EA::UnitTest::Test", %"class.EA::UnitTest::TestCollection", i32, %"class.eastl::vector.2" }
%"class.eastl::vector.2" = type { %"struct.eastl::VectorBase.3" }
%"struct.eastl::VectorBase.3" = type { ptr, ptr, %"class.eastl::compressed_pair.4" }
%"class.eastl::compressed_pair.4" = type { %"class.eastl::compressed_pair_imp.5" }
%"class.eastl::compressed_pair_imp.5" = type { ptr }
%"struct.EA::UnitTest::TestSuite::ResultInfo" = type { ptr, i32 }

; Function Attrs: mustprogress nounwind uwtable
define linkonce_odr dso_local void @_ZN2EA6Thread10ThreadTimeC2ERKl(ptr noundef nonnull align 8 dereferenceable(16) %this, ptr noundef nonnull align 8 dereferenceable(8) %nMilliseconds) unnamed_addr #1 comdat align 2 {
entry:
  %this.addr = alloca ptr, align 8
  %nMilliseconds.addr = alloca ptr, align 8
  store ptr %this, ptr %this.addr, align 8
  store ptr %nMilliseconds, ptr %nMilliseconds.addr, align 8
  %this1 = load ptr, ptr %this.addr, align 8
  %0 = load ptr, ptr %nMilliseconds.addr, align 8
  %1 = load i64, ptr %0, align 8
  %div = sdiv i64 %1, 1000
  %tv_sec = getelementptr inbounds %struct.timespec, ptr %this1, i32 0, i32 0
  store i64 %div, ptr %tv_sec, align 8
  %2 = load ptr, ptr %nMilliseconds.addr, align 8
  %3 = load i64, ptr %2, align 8
  %tv_sec2 = getelementptr inbounds %struct.timespec, ptr %this1, i32 0, i32 0
  %4 = load i64, ptr %tv_sec2, align 8
  %mul = mul nsw i64 %4, 1000
  %sub = sub nsw i64 %3, %mul
  %mul3 = mul nsw i64 %sub, 1000000
  %tv_nsec = getelementptr inbounds %struct.timespec, ptr %this1, i32 0, i32 1
  store i64 %mul3, ptr %tv_nsec, align 8
  ret void
}

; Function Attrs: mustprogress uwtable
define dso_local void @_ZN2EA8UnitTest11ThreadSleepEf(float noundef %fTimeMilliseconds) #2 {
entry:
  %fTimeMilliseconds.addr = alloca float, align 4
  %ref.tmp = alloca %"struct.EA::Thread::ThreadTime", align 8
  %ref.tmp1 = alloca i64, align 8
  store float %fTimeMilliseconds, ptr %fTimeMilliseconds.addr, align 4
  %0 = load float, ptr %fTimeMilliseconds.addr, align 4
  %conv = fptosi float %0 to i32
  %conv2 = sext i32 %conv to i64
  store i64 %conv2, ptr %ref.tmp1, align 8
  call void @_ZN2EA6Thread10ThreadTimeC2ERKl(ptr noundef nonnull align 8 dereferenceable(16) %ref.tmp, ptr noundef nonnull align 8 dereferenceable(8) %ref.tmp1)
  call void @_ZN2EA6Thread11ThreadSleepERKNS0_10ThreadTimeE(ptr noundef nonnull align 8 dereferenceable(16) %ref.tmp)
  ret void
}

; Function Attrs: mustprogress nounwind uwtable
define linkonce_odr dso_local noundef ptr @_ZN5eastl6vectorIN2EA8UnitTest9TestSuite10ResultInfoENS_9allocatorEE3endEv(ptr noundef nonnull align 8 dereferenceable(24) %this) #1 comdat align 2 {
entry:
  %this.addr = alloca ptr, align 8
  store ptr %this, ptr %this.addr, align 8
  %this1 = load ptr, ptr %this.addr, align 8
  %mpEnd = getelementptr inbounds %"struct.eastl::VectorBase.3", ptr %this1, i32 0, i32 1
  %0 = load ptr, ptr %mpEnd, align 8
  ret ptr %0
}

; Function Attrs: mustprogress nounwind uwtable
define linkonce_odr dso_local noundef ptr @_ZN5eastl6vectorIN2EA8UnitTest9TestSuite10ResultInfoENS_9allocatorEE5beginEv(ptr noundef nonnull align 8 dereferenceable(24) %this) #1 comdat align 2 {
entry:
  %this.addr = alloca ptr, align 8
  store ptr %this, ptr %this.addr, align 8
  %this1 = load ptr, ptr %this.addr, align 8
  %mpBegin = getelementptr inbounds %"struct.eastl::VectorBase.3", ptr %this1, i32 0, i32 0
  %0 = load ptr, ptr %mpBegin, align 8
  ret ptr %0
}

; Function Attrs: mustprogress nounwind uwtable
define dso_local void @_ZN2EA8UnitTest33EnableAlignmentExceptionDetectionEv() #1 {
entry:
  ret void
}

; Function Attrs: mustprogress uwtable
define dso_local noundef i32 @_ZN2EA8UnitTest9TestSuite3RunEv(ptr noundef nonnull align 8 dereferenceable(144) %this) unnamed_addr #2 align 2 {
entry:
  %retval = alloca i32, align 4
  %this.addr = alloca ptr, align 8
  %bContinueRequested = alloca i8, align 1
  %it = alloca ptr, align 8
  %resultInfo = alloca ptr, align 8
  store ptr %this, ptr %this.addr, align 8
  %this1 = load ptr, ptr %this.addr, align 8
  store i8 0, ptr %bContinueRequested, align 1
  call void @_ZN2EA8UnitTest33EnableAlignmentExceptionDetectionEv()
  %mnTestResult = getelementptr inbounds %"class.EA::UnitTest::TestSuite", ptr %this1, i32 0, i32 2
  store i32 0, ptr %mnTestResult, align 8
  %mResults = getelementptr inbounds %"class.EA::UnitTest::TestSuite", ptr %this1, i32 0, i32 3
  %call = call noundef ptr @_ZN5eastl6vectorIN2EA8UnitTest9TestSuite10ResultInfoENS_9allocatorEE5beginEv(ptr noundef nonnull align 8 dereferenceable(24) %mResults) #13
  store ptr %call, ptr %it, align 8
  br label %for.cond

for.cond:                                         ; preds = %for.inc, %entry
  %0 = load ptr, ptr %it, align 8
  %mResults2 = getelementptr inbounds %"class.EA::UnitTest::TestSuite", ptr %this1, i32 0, i32 3
  %call3 = call noundef ptr @_ZN5eastl6vectorIN2EA8UnitTest9TestSuite10ResultInfoENS_9allocatorEE3endEv(ptr noundef nonnull align 8 dereferenceable(24) %mResults2) #13
  %cmp = icmp ne ptr %0, %call3
  br i1 %cmp, label %for.body, label %for.end

for.body:                                         ; preds = %for.cond
  %1 = load ptr, ptr %it, align 8
  store ptr %1, ptr %resultInfo, align 8
  %2 = load ptr, ptr %resultInfo, align 8
  %mnResult = getelementptr inbounds %"struct.EA::UnitTest::TestSuite::ResultInfo", ptr %2, i32 0, i32 1
  %3 = load i32, ptr %mnResult, align 8
  %cmp4 = icmp ne i32 %3, -2147483647
  br i1 %cmp4, label %if.then, label %if.end

if.then:                                          ; preds = %for.body
  br label %for.inc

if.end:                                           ; preds = %for.body
  %4 = load ptr, ptr %resultInfo, align 8
  call void @_ZN2EA8UnitTest9TestSuite3RunERNS1_10ResultInfoE(ptr noundef nonnull align 8 dereferenceable(144) %this1, ptr noundef nonnull align 8 dereferenceable(16) %4)
  %5 = load ptr, ptr %resultInfo, align 8
  %mnResult5 = getelementptr inbounds %"struct.EA::UnitTest::TestSuite::ResultInfo", ptr %5, i32 0, i32 1
  %6 = load i32, ptr %mnResult5, align 8
  %cmp6 = icmp eq i32 %6, -2147483648
  br i1 %cmp6, label %if.then7, label %if.else

if.then7:                                         ; preds = %if.end
  store i8 1, ptr %bContinueRequested, align 1
  call void @_ZN2EA8UnitTest11ThreadSleepEf(float noundef 1.000000e+02)
  br label %if.end13

if.else:                                          ; preds = %if.end
  %7 = load ptr, ptr %resultInfo, align 8
  %mnResult8 = getelementptr inbounds %"struct.EA::UnitTest::TestSuite::ResultInfo", ptr %7, i32 0, i32 1
  %8 = load i32, ptr %mnResult8, align 8
  %cmp9 = icmp sge i32 %8, 1
  br i1 %cmp9, label %if.then10, label %if.end12

if.then10:                                        ; preds = %if.else
  %mnTestResult11 = getelementptr inbounds %"class.EA::UnitTest::TestSuite", ptr %this1, i32 0, i32 2
  store i32 1, ptr %mnTestResult11, align 8
  br label %if.end12

if.end12:                                         ; preds = %if.then10, %if.else
  br label %if.end13

if.end13:                                         ; preds = %if.end12, %if.then7
  br label %for.inc

for.inc:                                          ; preds = %if.end13, %if.then
  %9 = load ptr, ptr %it, align 8
  %incdec.ptr = getelementptr inbounds %"struct.EA::UnitTest::TestSuite::ResultInfo", ptr %9, i32 1
  store ptr %incdec.ptr, ptr %it, align 8
  br label %for.cond, !llvm.loop !15

for.end:                                          ; preds = %for.cond
  %10 = load i8, ptr %bContinueRequested, align 1
  %tobool = trunc i8 %10 to i1
  br i1 %tobool, label %if.then14, label %if.end15

if.then14:                                        ; preds = %for.end
  store i32 -2147483648, ptr %retval, align 4
  br label %return

if.end15:                                         ; preds = %for.end
  %vtable = load ptr, ptr %this1, align 8
  %vfn = getelementptr inbounds ptr, ptr %vtable, i64 7
  %11 = load ptr, ptr %vfn, align 8
  call void %11(ptr noundef nonnull align 8 dereferenceable(144) %this1)
  %mnTestResult16 = getelementptr inbounds %"class.EA::UnitTest::TestSuite", ptr %this1, i32 0, i32 2
  %12 = load i32, ptr %mnTestResult16, align 8
  store i32 %12, ptr %retval, align 4
  br label %return

return:                                           ; preds = %if.end15, %if.then14
  %13 = load i32, ptr %retval, align 4
  ret i32 %13
}