; Function Attrs: mustprogress uwtable
define dso_local noundef i32 @_ZN2EA8UnitTest9TestSuite3RunEv(ptr noundef nonnull align 8 dereferenceable(144) %this) unnamed_addr #0 align 2 {
entry:
  %ref.tmp.i = alloca %"struct.EA::Thread::ThreadTime", align 8
  %mnTestResult = getelementptr inbounds i8, ptr %this, i64 112
  store i32 0, ptr %mnTestResult, align 8
  %mResults = getelementptr inbounds i8, ptr %this, i64 120
  %0 = load ptr, ptr %mResults, align 8
  %mpEnd.i = getelementptr inbounds i8, ptr %this, i64 128
  %1 = load ptr, ptr %mpEnd.i, align 8
  %cmp.not6 = icmp eq ptr %0, %1
  br i1 %cmp.not6, label %if.end15, label %for.body.lr.ph

for.body.lr.ph:                                   ; preds = %entry
  %tv_nsec.i.i = getelementptr inbounds i8, ptr %ref.tmp.i, i64 8
  br label %for.body

for.body:                                         ; preds = %for.body.lr.ph, %for.inc
  %it.08 = phi ptr [ %0, %for.body.lr.ph ], [ %incdec.ptr, %for.inc ]
  %bContinueRequested.07 = phi i8 [ 0, %for.body.lr.ph ], [ %bContinueRequested.1, %for.inc ]
  %mnResult = getelementptr inbounds i8, ptr %it.08, i64 8
  %2 = load i32, ptr %mnResult, align 8
  %cmp4.not = icmp eq i32 %2, -2147483647
  br i1 %cmp4.not, label %if.end, label %for.inc

if.end:                                           ; preds = %for.body
  call void @_ZN2EA8UnitTest9TestSuite3RunERNS1_10ResultInfoE(ptr noundef nonnull align 8 dereferenceable(144) %this, ptr noundef nonnull align 8 dereferenceable(16) %it.08)
  %3 = load i32, ptr %mnResult, align 8
  %cmp6 = icmp eq i32 %3, -2147483648
  br i1 %cmp6, label %if.then7, label %if.else

if.then7:                                         ; preds = %if.end
  call void @llvm.lifetime.start.p0(i64 16, ptr nonnull %ref.tmp.i)
  store i64 0, ptr %ref.tmp.i, align 8
  store i64 100000000, ptr %tv_nsec.i.i, align 8
  call void @_ZN2EA6Thread11ThreadSleepERKNS0_10ThreadTimeE(ptr noundef nonnull align 8 dereferenceable(16) %ref.tmp.i)
  call void @llvm.lifetime.end.p0(i64 16, ptr nonnull %ref.tmp.i)
  br label %for.inc

if.else:                                          ; preds = %if.end
  %cmp9 = icmp sgt i32 %3, 0
  br i1 %cmp9, label %if.then10, label %for.inc

if.then10:                                        ; preds = %if.else
  store i32 1, ptr %mnTestResult, align 8
  br label %for.inc

for.inc:                                          ; preds = %if.then7, %if.then10, %if.else, %for.body
  %bContinueRequested.1 = phi i8 [ %bContinueRequested.07, %for.body ], [ 1, %if.then7 ], [ %bContinueRequested.07, %if.then10 ], [ %bContinueRequested.07, %if.else ]
  %incdec.ptr = getelementptr inbounds i8, ptr %it.08, i64 16
  %4 = load ptr, ptr %mpEnd.i, align 8
  %cmp.not = icmp eq ptr %incdec.ptr, %4
  br i1 %cmp.not, label %for.end, label %for.body, !llvm.loop !18

for.end:                                          ; preds = %for.inc
  %5 = and i8 %bContinueRequested.1, 1
  %6 = icmp eq i8 %5, 0
  br i1 %6, label %if.end15, label %return

if.end15:                                         ; preds = %entry, %for.end
  %vtable = load ptr, ptr %this, align 8
  %vfn = getelementptr inbounds i8, ptr %vtable, i64 56
  %7 = load ptr, ptr %vfn, align 8
  call void %7(ptr noundef nonnull align 8 dereferenceable(144) %this)
  %8 = load i32, ptr %mnTestResult, align 8
  br label %return

return:                                           ; preds = %for.end, %if.end15
  %retval.0 = phi i32 [ %8, %if.end15 ], [ -2147483648, %for.end ]
  ret i32 %retval.0
}